(dp1
S'output'
p2
S"<type 'exceptions.AttributeError'> 'NoneType' object has no attribute 'email'"
p3
sS'layer'
p4
S'/home/vamsee/web2py/applications/Tris/models/db.py'
p5
sS'code'
p6
S"# -*- coding: utf-8 -*-\n\n#########################################################################\n## This scaffolding model makes your app work on Google App Engine too\n## File is released under public domain and you can use without limitations\n#########################################################################\n\n## if SSL/HTTPS is properly configured and you want all HTTP requests to\n## be redirected to HTTPS, uncomment the line below:\n# request.requires_https()\nimport datetime\n\nif not request.env.web2py_runtime_gae:\n    ## if NOT running on Google App Engine use SQLite or other DB\n    db = DAL('sqlite://storage.sqlite',pool_size=1,check_reserved=['all'])\nelse:\n    ## connect to Google BigTable (optional 'google:datastore://namespace')\n    db = DAL('google:datastore')\n    ## store sessions and tickets there\n    session.connect(request, response, db=db)\n    ## or store session in Memcache, Redis, etc.\n    ## from gluon.contrib.memdb import MEMDB\n    ## from google.appengine.api.memcache import Client\n    ## session.connect(request, response, db = MEMDB(Client()))\n\n## by default give a view/generic.extension to all actions from localhost\n## none otherwise. a pattern can be 'controller/function.extension'\nresponse.generic_patterns = ['*'] if request.is_local else []\n## (optional) optimize handling of static files\n# response.optimize_css = 'concat,minify,inline'\n# response.optimize_js = 'concat,minify,inline'\n## (optional) static assets folder versioning\n# response.static_version = '0.0.0'\n#########################################################################\n## Here is sample code if you need for\n## - email capabilities\n## - authentication (registration, login, logout, ... )\n## - authorization (role based authorization)\n## - services (xml, csv, json, xmlrpc, jsonrpc, amf, rss)\n## - old style crud actions\n## (more options discussed in gluon/tools.py)\n#########################################################################\n\nfrom gluon.tools import Auth, Crud, Service, PluginManager, prettydate\nauth = Auth(db)\ncrud, service, plugins = Crud(db), Service(), PluginManager()\n\n## create all tables needed by auth if not custom tables\nauth.define_tables(username=False, signature=False)\n\n## configure email\nmail = auth.settings.mailer\nmail.settings.server = 'logging' or 'smtp.gmail.com:587'\nmail.settings.sender = 'you@gmail.com'\nmail.settings.login = 'username:password'\n\n## configure auth policy\nauth.settings.registration_requires_verification = False\nauth.settings.registration_requires_approval = False\nauth.settings.reset_password_requires_verification = True\n\n## if you need to use OpenID, Facebook, MySpace, Twitter, Linkedin, etc.\n## register with janrain.com, write your domain:api_key in private/janrain.key\nfrom gluon.contrib.login_methods.rpx_account import use_janrain\nuse_janrain(auth, filename='private/janrain.key')\n\nauth.next=None\nauth.settings.login_next = URL('login_home')\n#########################################################################\n## Define your tables below (or better in another model file) for example\n##\n## >>> db.define_table('mytable',Field('myfield','string'))\n##\n## Fields can be 'string','text','password','integer','double','boolean'\n##       'date','time','datetime','blob','upload', 'reference TABLENAME'\n## There is an implicit 'id integer autoincrement' field\n## Consult manual for more options, validators, etc.\n##\n## More API examples for controllers:\n##\n## >>> db.mytable.insert(myfield='value')\n## >>> rows=db(db.mytable.myfield=='value').select(db.mytable.ALL)\n## >>> for row in rows: print row.id, row.myfield\n#########################################################################\n\n## after defining tables, uncomment below to enable auditing\n# auth.enable_record_versioning(db)\ndb.define_table('notes_upload',Field('email','string', default=auth.user.email), Field('added', 'datetime', default=datetime.datetime.now()), Field('note', 'upload'))\n"
p7
sS'snapshot'
p8
(dp9
S'exception'
p10
(dp11
S'__hash__'
p12
S"<method-wrapper '__hash__' of exceptions.AttributeError object>"
p13
sS'__setattr__'
p14
S"<method-wrapper '__setattr__' of exceptions.AttributeError object>"
p15
sS'__reduce_ex__'
p16
S'<built-in method __reduce_ex__ of exceptions.AttributeError object>'
p17
sS'__getslice__'
p18
S"<method-wrapper '__getslice__' of exceptions.AttributeError object>"
p19
sS'__getitem__'
p20
S"<method-wrapper '__getitem__' of exceptions.AttributeError object>"
p21
sS'__setstate__'
p22
S'<built-in method __setstate__ of exceptions.AttributeError object>'
p23
sS'args'
p24
S'("\'NoneType\' object has no attribute \'email\'",)'
p25
sS'__reduce__'
p26
S'<built-in method __reduce__ of exceptions.AttributeError object>'
p27
sS'__str__'
p28
S"<method-wrapper '__str__' of exceptions.AttributeError object>"
p29
sS'__format__'
p30
S'<built-in method __format__ of exceptions.AttributeError object>'
p31
sS'__getattribute__'
p32
S"<method-wrapper '__getattribute__' of exceptions.AttributeError object>"
p33
sS'__class__'
p34
S"<type 'exceptions.AttributeError'>"
p35
sS'__unicode__'
p36
S'<built-in method __unicode__ of exceptions.AttributeError object>'
p37
sS'__delattr__'
p38
S"<method-wrapper '__delattr__' of exceptions.AttributeError object>"
p39
sS'__subclasshook__'
p40
S'<built-in method __subclasshook__ of type object>'
p41
sS'__repr__'
p42
S"<method-wrapper '__repr__' of exceptions.AttributeError object>"
p43
sS'__dict__'
p44
S'{}'
p45
sS'__sizeof__'
p46
S'<built-in method __sizeof__ of exceptions.AttributeError object>'
p47
sS'__doc__'
p48
S"'Attribute not found.'"
p49
sS'__init__'
p50
S"<method-wrapper '__init__' of exceptions.AttributeError object>"
p51
sS'__new__'
p52
S'<built-in method __new__ of type object>'
p53
ssS'evalue'
p54
S"'NoneType' object has no attribute 'email'"
p55
sS'request'
p56
cgluon.html
XML_unpickle
p57
(S'siG\x00\x00<div><table><tr><td style="font-weight:bold;vertical-align:top;">ajax</td><td style="vertical-align:top;">:</td><td><div>False</div></td></tr><tr><td style="font-weight:bold;vertical-align:top;">application</td><td style="vertical-align:top;">:</td><td><div>Tris</div></td></tr><tr><td style="font-weight:bold;vertical-align:top;">args</td><td style="vertical-align:top;">:</td><td><div><table></table></div></td></tr><tr><td style="font-weight:bold;vertical-align:top;">cid</td><td style="vertical-align:top;">:</td><td><div>None</div></td></tr><tr><td style="font-weight:bold;vertical-align:top;">client</td><td style="vertical-align:top;">:</td><td><div>127.0.0.1</div></td></tr><tr><td style="font-weight:bold;vertical-align:top;">controller</td><td style="vertical-align:top;">:</td><td><div>default</div></td></tr><tr><td style="font-weight:bold;vertical-align:top;">cookies</td><td style="vertical-align:top;">:</td><td><div><table></table></div></td></tr><tr><td style="font-weight:bold;vertical-align:top;">env</td><td style="vertical-align:top;">:</td><td><div><table><tr><td style="font-weight:bold;vertical-align:top;">HTTP_ACCEPT</td><td style="vertical-align:top;">:</td><td><div>text/html,application/xhtml+xml,application/xml;q=0.9,*/*;q=0.8</div></td></tr><tr><td style="font-weight:bold;vertical-align:top;">HTTP_ACCEPT_ENCODING</td><td style="vertical-align:top;">:</td><td><div>gzip, deflate</div></td></tr><tr><td style="font-weight:bold;vertical-align:top;">HTTP_ACCEPT_LANGUAGE</td><td style="vertical-align:top;">:</td><td><div>en-US,en;q=0.5</div></td></tr><tr><td style="font-weight:bold;vertical-align:top;">HTTP_CONNECTION</td><td style="vertical-align:top;">:</td><td><div>keep-alive</div></td></tr><tr><td style="font-weight:bold;vertical-align:top;">HTTP_HOST</td><td style="vertical-align:top;">:</td><td><div>127.0.0.1:8000</div></td></tr><tr><td style="font-weight:bold;vertical-align:top;">HTTP_USER_AGENT</td><td style="vertical-align:top;">:</td><td><div>Mozilla/5.0 (X11; Ubuntu; Linux x86_64; rv:28.0) Gecko/20100101 Firefox/28.0</div></td></tr><tr><td style="font-weight:bold;vertical-align:top;">PATH_INFO</td><td style="vertical-align:top;">:</td><td><div>/Tris/default/</div></td></tr><tr><td style="font-weight:bold;vertical-align:top;">QUERY_STRING</td><td style="vertical-align:top;">:</td><td><div></div></td></tr><tr><td style="font-weight:bold;vertical-align:top;">REMOTE_ADDR</td><td style="vertical-align:top;">:</td><td><div>127.0.0.1</div></td></tr><tr><td style="font-weight:bold;vertical-align:top;">REMOTE_PORT</td><td style="vertical-align:top;">:</td><td><div>57592</div></td></tr><tr><td style="font-weight:bold;vertical-align:top;">REQUEST_METHOD</td><td style="vertical-align:top;">:</td><td><div>GET</div></td></tr><tr><td style="font-weight:bold;vertical-align:top;">SCRIPT_NAME</td><td style="vertical-align:top;">:</td><td><div></div></td></tr><tr><td style="font-weight:bold;vertical-align:top;">SERVER_NAME</td><td style="vertical-align:top;">:</td><td><div>HP-Ubuntu-Vamsee</div></td></tr><tr><td style="font-weight:bold;vertical-align:top;">SERVER_PORT</td><td style="vertical-align:top;">:</td><td><div>8000</div></td></tr><tr><td style="font-weight:bold;vertical-align:top;">SERVER_PROTOCOL</td><td style="vertical-align:top;">:</td><td><div>HTTP/1.1</div></td></tr><tr><td style="font-weight:bold;vertical-align:top;">SERVER_SOFTWARE</td><td style="vertical-align:top;">:</td><td><div>Rocket 1.2.6</div></td></tr><tr><td style="font-weight:bold;vertical-align:top;">app_folders</td><td style="vertical-align:top;">:</td><td><div>set([&#x27;/home/vamsee/web2py/applications/Project/&#x27;, &#x27;/home/vamsee/web2py/applications/admin/&#x27;, &#x27;/home/vamsee/web2py/applications/autocomplete/&#x27;, &#x27;/home/vamsee/web2py/applications/Tris/&#x27;])</div></td></tr><tr><td style="font-weight:bold;vertical-align:top;">applications_parent</td><td style="vertical-align:top;">:</td><td><div>/home/vamsee/web2py</div></td></tr><tr><td style="font-weight:bold;vertical-align:top;">cmd_args</td><td style="vertical-align:top;">:</td><td><div><table></table></div></td></tr><tr><td style="font-weight:bold;vertical-align:top;">cmd_options</td><td style="vertical-align:top;">:</td><td><div>&lt;Values at 0x30f01b8: {&#x27;verbose&#x27;: False, &#x27;ip&#x27;: &#x27;127.0.0.1&#x27;, &#x27;debuglevel&#x27;: 30, &#x27;with_scheduler&#x27;: False, &#x27;ips&#x27;: [&#x27;127.0.1.1&#x27;], &#x27;shutdown_timeout&#x27;: 5, &#x27;taskbar&#x27;: False, &#x27;with_coverage&#x27;: False, &#x27;port&#x27;: 8000, &#x27;maxthreads&#x27;: None, &#x27;softcron&#x27;: False, &#x27;server_name&#x27;: &#x27;HP-Ubuntu-Vamsee&#x27;, &#x27;bpython&#x27;: False, &#x27;nogui&#x27;: True, &#x27;pid_filename&#x27;: &#x27;httpserver.pid&#x27;, &#x27;extcron&#x27;: False, &#x27;runcron&#x27;: False, &#x27;run_system_tests&#x27;: False, &#x27;test&#x27;: None, &#x27;folder&#x27;: &#x27;/home/vamsee/web2py&#x27;, &#x27;config&#x27;: &#x27;&#x27;, &#x27;minthreads&#x27;: None, &#x27;shell&#x27;: None, &#x27;run&#x27;: &#x27;&#x27;, &#x27;log_filename&#x27;: &#x27;httpserver.log&#x27;, &#x27;profiler_dir&#x27;: None, &#x27;args&#x27;: [&#x27;&#x27;], &#x27;socket_timeout&#x27;: 5, &#x27;ssl_ca_certificate&#x27;: None, &#x27;scheduler&#x27;: None, &#x27;interfaces&#x27;: None, &#x27;ssl_private_key&#x27;: &#x27;&#x27;, &#x27;scheduler_groups&#x27;: None, &#x27;password&#x27;: &#x27;123&#x27;, &#x27;request_queue_size&#x27;: 5, &#x27;ssl_certificate&#x27;: &#x27;&#x27;, &#x27;cronjob&#x27;: False, &#x27;numthreads&#x27;: None, &#x27;quiet&#x27;: False, &#x27;import_models&#x27;: False, &#x27;timeout&#x27;: 10, &#x27;plain&#x27;: False, &#x27;nobanner&#x27;: False}&gt;</div></td></tr><tr><td style="font-weight:bold;vertical-align:top;">db_sessions</td><td style="vertical-align:top;">:</td><td><div>set([])</div></td></tr><tr><td style="font-weight:bold;vertical-align:top;">debugging</td><td style="vertical-align:top;">:</td><td><div>True</div></td></tr><tr><td style="font-weight:bold;vertical-align:top;">gluon_parent</td><td style="vertical-align:top;">:</td><td><div>/home/vamsee/web2py</div></td></tr><tr><td style="font-weight:bold;vertical-align:top;">http_accept</td><td style="vertical-align:top;">:</td><td><div>text/html,application/xhtml+xml,application/xml;q=0.9,*/*;q=0.8</div></td></tr><tr><td style="font-weight:bold;vertical-align:top;">http_accept_encoding</td><td style="vertical-align:top;">:</td><td><div>gzip, deflate</div></td></tr><tr><td style="font-weight:bold;vertical-align:top;">http_accept_language</td><td style="vertical-align:top;">:</td><td><div>en-US,en;q=0.5</div></td></tr><tr><td style="font-weight:bold;vertical-align:top;">http_connection</td><td style="vertical-align:top;">:</td><td><div>keep-alive</div></td></tr><tr><td style="font-weight:bold;vertical-align:top;">http_host</td><td style="vertical-align:top;">:</td><td><div>127.0.0.1:8000</div></td></tr><tr><td style="font-weight:bold;vertical-align:top;">http_user_agent</td><td style="vertical-align:top;">:</td><td><div>Mozilla/5.0 (X11; Ubuntu; Linux x86_64; rv:28.0) Gecko/20100101 Firefox/28.0</div></td></tr><tr><td style="font-weight:bold;vertical-align:top;">is_jython</td><td style="vertical-align:top;">:</td><td><div>False</div></td></tr><tr><td style="font-weight:bold;vertical-align:top;">is_pypy</td><td style="vertical-align:top;">:</td><td><div>False</div></td></tr><tr><td style="font-weight:bold;vertical-align:top;">is_source</td><td style="vertical-align:top;">:</td><td><div>True</div></td></tr><tr><td style="font-weight:bold;vertical-align:top;">local_hosts</td><td style="vertical-align:top;">:</td><td><div><table><tr><td><div>HP-Ubuntu-Vamsee</div></td></tr><tr><td><div>::1</div></td></tr><tr><td><div>127.0.1.1</div></td></tr><tr><td><div>::ffff:127.0.0.1</div></td></tr><tr><td><div>127.0.0.1</div></td></tr></table></div></td></tr><tr><td style="font-weight:bold;vertical-align:top;">path_info</td><td style="vertical-align:top;">:</td><td><div>/Tris/default/</div></td></tr><tr><td style="font-weight:bold;vertical-align:top;">query_string</td><td style="vertical-align:top;">:</td><td><div></div></td></tr><tr><td style="font-weight:bold;vertical-align:top;">remote_addr</td><td style="vertical-align:top;">:</td><td><div>127.0.0.1</div></td></tr><tr><td style="font-weight:bold;vertical-align:top;">remote_port</td><td style="vertical-align:top;">:</td><td><div>57592</div></td></tr><tr><td style="font-weight:bold;vertical-align:top;">request_method</td><td style="vertical-align:top;">:</td><td><div>GET</div></td></tr><tr><td style="font-weight:bold;vertical-align:top;">request_uri</td><td style="vertical-align:top;">:</td><td><div>/Tris/default/</div></td></tr><tr><td style="font-weight:bold;vertical-align:top;">script_name</td><td style="vertical-align:top;">:</td><td><div></div></td></tr><tr><td style="font-weight:bold;vertical-align:top;">server_name</td><td style="vertical-align:top;">:</td><td><div>HP-Ubuntu-Vamsee</div></td></tr><tr><td style="font-weight:bold;vertical-align:top;">server_port</td><td style="vertical-align:top;">:</td><td><div>8000</div></td></tr><tr><td style="font-weight:bold;vertical-align:top;">server_protocol</td><td style="vertical-align:top;">:</td><td><div>HTTP/1.1</div></td></tr><tr><td style="font-weight:bold;vertical-align:top;">server_software</td><td style="vertical-align:top;">:</td><td><div>Rocket 1.2.6</div></td></tr><tr><td style="font-weight:bold;vertical-align:top;">web2py_path</td><td style="vertical-align:top;">:</td><td><div>/home/vamsee/web2py</div></td></tr><tr><td style="font-weight:bold;vertical-align:top;">web2py_version</td><td style="vertical-align:top;">:</td><td><div>2.9.4-stable+timestamp.2014.03.05.04.44.09</div></td></tr><tr><td style="font-weight:bold;vertical-align:top;">wsgi.errors</td><td style="vertical-align:top;">:</td><td><div>&lt;open file &#x27;&lt;stderr&gt;&#x27;, mode &#x27;w&#x27; at 0x7fc50c2a91e0&gt;</div></td></tr><tr><td style="font-weight:bold;vertical-align:top;">wsgi.file_wrapper</td><td style="vertical-align:top;">:</td><td><div>&lt;class wsgiref.util.FileWrapper at 0x308f120&gt;</div></td></tr><tr><td style="font-weight:bold;vertical-align:top;">wsgi.input</td><td style="vertical-align:top;">:</td><td><div>&lt;socket._fileobject object at 0x7fc4f8420150&gt;</div></td></tr><tr><td style="font-weight:bold;vertical-align:top;">wsgi.multiprocess</td><td style="vertical-align:top;">:</td><td><div>False</div></td></tr><tr><td style="font-weight:bold;vertical-align:top;">wsgi.multithread</td><td style="vertical-align:top;">:</td><td><div>True</div></td></tr><tr><td style="font-weight:bold;vertical-align:top;">wsgi.run_once</td><td style="vertical-align:top;">:</td><td><div>False</div></td></tr><tr><td style="font-weight:bold;vertical-align:top;">wsgi.url_scheme</td><td style="vertical-align:top;">:</td><td><div>http</div></td></tr><tr><td style="font-weight:bold;vertical-align:top;">wsgi.version</td><td style="vertical-align:top;">:</td><td><div><table><tr><td><div>1</div></td></tr><tr><td><div>0</div></td></tr></table></div></td></tr><tr><td style="font-weight:bold;vertical-align:top;">wsgi_errors</td><td style="vertical-align:top;">:</td><td><div>&lt;open file &#x27;&lt;stderr&gt;&#x27;, mode &#x27;w&#x27; at 0x7fc50c2a91e0&gt;</div></td></tr><tr><td style="font-weight:bold;vertical-align:top;">wsgi_file_wrapper</td><td style="vertical-align:top;">:</td><td><div>&lt;class wsgiref.util.FileWrapper at 0x308f120&gt;</div></td></tr><tr><td style="font-weight:bold;vertical-align:top;">wsgi_input</td><td style="vertical-align:top;">:</td><td><div>&lt;socket._fileobject object at 0x7fc4f8420150&gt;</div></td></tr><tr><td style="font-weight:bold;vertical-align:top;">wsgi_multiprocess</td><td style="vertical-align:top;">:</td><td><div>False</div></td></tr><tr><td style="font-weight:bold;vertical-align:top;">wsgi_multithread</td><td style="vertical-align:top;">:</td><td><div>True</div></td></tr><tr><td style="font-weight:bold;vertical-align:top;">wsgi_run_once</td><td style="vertical-align:top;">:</td><td><div>False</div></td></tr><tr><td style="font-weight:bold;vertical-align:top;">wsgi_url_scheme</td><td style="vertical-align:top;">:</td><td><div>http</div></td></tr><tr><td style="font-weight:bold;vertical-align:top;">wsgi_version</td><td style="vertical-align:top;">:</td><td><div><table><tr><td><div>1</div></td></tr><tr><td><div>0</div></td></tr></table></div></td></tr></table></div></td></tr><tr><td style="font-weight:bold;vertical-align:top;">extension</td><td style="vertical-align:top;">:</td><td><div>html</div></td></tr><tr><td style="font-weight:bold;vertical-align:top;">folder</td><td style="vertical-align:top;">:</td><td><div>/home/vamsee/web2py/applications/Tris/</div></td></tr><tr><td style="font-weight:bold;vertical-align:top;">function</td><td style="vertical-align:top;">:</td><td><div>index</div></td></tr><tr><td style="font-weight:bold;vertical-align:top;">global_settings</td><td style="vertical-align:top;">:</td><td><div><table><tr><td style="font-weight:bold;vertical-align:top;">app_folders</td><td style="vertical-align:top;">:</td><td><div>set([&#x27;/home/vamsee/web2py/applications/Project/&#x27;, &#x27;/home/vamsee/web2py/applications/admin/&#x27;, &#x27;/home/vamsee/web2py/applications/autocomplete/&#x27;, &#x27;/home/vamsee/web2py/applications/Tris/&#x27;])</div></td></tr><tr><td style="font-weight:bold;vertical-align:top;">applications_parent</td><td style="vertical-align:top;">:</td><td><div>/home/vamsee/web2py</div></td></tr><tr><td style="font-weight:bold;vertical-align:top;">cmd_args</td><td style="vertical-align:top;">:</td><td><div><table></table></div></td></tr><tr><td style="font-weight:bold;vertical-align:top;">cmd_options</td><td style="vertical-align:top;">:</td><td><div>&lt;Values at 0x30f01b8: {&#x27;verbose&#x27;: False, &#x27;ip&#x27;: &#x27;127.0.0.1&#x27;, &#x27;debuglevel&#x27;: 30, &#x27;with_scheduler&#x27;: False, &#x27;ips&#x27;: [&#x27;127.0.1.1&#x27;], &#x27;shutdown_timeout&#x27;: 5, &#x27;taskbar&#x27;: False, &#x27;with_coverage&#x27;: False, &#x27;port&#x27;: 8000, &#x27;maxthreads&#x27;: None, &#x27;softcron&#x27;: False, &#x27;server_name&#x27;: &#x27;HP-Ubuntu-Vamsee&#x27;, &#x27;bpython&#x27;: False, &#x27;nogui&#x27;: True, &#x27;pid_filename&#x27;: &#x27;httpserver.pid&#x27;, &#x27;extcron&#x27;: False, &#x27;runcron&#x27;: False, &#x27;run_system_tests&#x27;: False, &#x27;test&#x27;: None, &#x27;folder&#x27;: &#x27;/home/vamsee/web2py&#x27;, &#x27;config&#x27;: &#x27;&#x27;, &#x27;minthreads&#x27;: None, &#x27;shell&#x27;: None, &#x27;run&#x27;: &#x27;&#x27;, &#x27;log_filename&#x27;: &#x27;httpserver.log&#x27;, &#x27;profiler_dir&#x27;: None, &#x27;args&#x27;: [&#x27;&#x27;], &#x27;socket_timeout&#x27;: 5, &#x27;ssl_ca_certificate&#x27;: None, &#x27;scheduler&#x27;: None, &#x27;interfaces&#x27;: None, &#x27;ssl_private_key&#x27;: &#x27;&#x27;, &#x27;scheduler_groups&#x27;: None, &#x27;password&#x27;: &#x27;123&#x27;, &#x27;request_queue_size&#x27;: 5, &#x27;ssl_certificate&#x27;: &#x27;&#x27;, &#x27;cronjob&#x27;: False, &#x27;numthreads&#x27;: None, &#x27;quiet&#x27;: False, &#x27;import_models&#x27;: False, &#x27;timeout&#x27;: 10, &#x27;plain&#x27;: False, &#x27;nobanner&#x27;: False}&gt;</div></td></tr><tr><td style="font-weight:bold;vertical-align:top;">db_sessions</td><td style="vertical-align:top;">:</td><td><div>set([])</div></td></tr><tr><td style="font-weight:bold;vertical-align:top;">debugging</td><td style="vertical-align:top;">:</td><td><div>True</div></td></tr><tr><td style="font-weight:bold;vertical-align:top;">gluon_parent</td><td style="vertical-align:top;">:</td><td><div>/home/vamsee/web2py</div></td></tr><tr><td style="font-weight:bold;vertical-align:top;">is_jython</td><td style="vertical-align:top;">:</td><td><div>False</div></td></tr><tr><td style="font-weight:bold;vertical-align:top;">is_pypy</td><td style="vertical-align:top;">:</td><td><div>False</div></td></tr><tr><td style="font-weight:bold;vertical-align:top;">is_source</td><td style="vertical-align:top;">:</td><td><div>True</div></td></tr><tr><td style="font-weight:bold;vertical-align:top;">local_hosts</td><td style="vertical-align:top;">:</td><td><div><table><tr><td><div>HP-Ubuntu-Vamsee</div></td></tr><tr><td><div>::1</div></td></tr><tr><td><div>127.0.1.1</div></td></tr><tr><td><div>::ffff:127.0.0.1</div></td></tr><tr><td><div>127.0.0.1</div></td></tr></table></div></td></tr><tr><td style="font-weight:bold;vertical-align:top;">web2py_version</td><td style="vertical-align:top;">:</td><td><div>2.9.4-stable+timestamp.2014.03.05.04.44.09</div></td></tr></table></div></td></tr><tr><td style="font-weight:bold;vertical-align:top;">is_https</td><td style="vertical-align:top;">:</td><td><div>False</div></td></tr><tr><td style="font-weight:bold;vertical-align:top;">is_local</td><td style="vertical-align:top;">:</td><td><div>True</div></td></tr><tr><td style="font-weight:bold;vertical-align:top;">is_restful</td><td style="vertical-align:top;">:</td><td><div>False</div></td></tr><tr><td style="font-weight:bold;vertical-align:top;">now</td><td style="vertical-align:top;">:</td><td><div>datetime.datetime(2014, 4, 7, 18, 48, 41, 616644)</div></td></tr><tr><td style="font-weight:bold;vertical-align:top;">raw_args</td><td style="vertical-align:top;">:</td><td><div></div></td></tr><tr><td style="font-weight:bold;vertical-align:top;">raw_extension</td><td style="vertical-align:top;">:</td><td><div>None</div></td></tr><tr><td style="font-weight:bold;vertical-align:top;">url</td><td style="vertical-align:top;">:</td><td><div>/Tris/default/</div></td></tr><tr><td style="font-weight:bold;vertical-align:top;">utcnow</td><td style="vertical-align:top;">:</td><td><div>datetime.datetime(2014, 4, 7, 13, 18, 41, 616685)</div></td></tr><tr><td style="font-weight:bold;vertical-align:top;">uuid</td><td style="vertical-align:top;">:</td><td><div>Tris/127.0.0.1.2014-04-07.18-48-41.7a0a06c2-545c-4aef-96df-3ddbbe300c62</div></td></tr><tr><td style="font-weight:bold;vertical-align:top;">wsgi</td><td style="vertical-align:top;">:</td><td><div>&lt;gluon.main.LazyWSGI object at 0x7fc4d40aadd0&gt;</div></td></tr></table></div>'
tRp58
sS'frames'
p59
(lp60
(dp61
S'file'
p62
S'/home/vamsee/web2py/gluon/restricted.py'
p63
sS'dump'
p64
(dp65
S'environment'
p66
S"{'A': <class 'gluon.html.A'>, 'ANY_OF': <class 'gluon.validators.ANY_OF'>, 'Auth': <class 'gluon.tools.Auth'>, 'B': <class 'gluon.html.B'>, 'BEAUTIFY': <class 'gluon.html.BEAUTIFY'>, 'BODY': <class 'gluon.html.BODY'>, 'BR': <class 'gluon.html.BR'>, 'BUTTON': <class 'gluon.html.BUTTON'>, 'CAT': <class 'gluon.html.CAT'>, 'CENTER': <class 'gluon.html.CENTER'>, ...}"
p67
sS'ccode'
p68
S'<code object <module> at 0x7fc4f8420cb0, file "/.../web2py/applications/Tris/models/db.py", line 11>'
p69
ssS'lnum'
p70
I217
sS'lines'
p71
(dp72
I212
S'    try:'
p73
sI213
S'        if isinstance(code, types.CodeType):'
p74
sI214
S'            ccode = code'
p75
sI215
S'        else:'
p76
sI216
S'            ccode = compile2(code, layer)'
p77
sI217
S'        exec ccode in environment'
p78
sI218
S'    except HTTP:'
p79
sI219
S'        raise'
p80
sI220
S'    except RestrictedError:'
p81
sI221
S'        # do not encapsulate (obfuscate) the original RestrictedError'
p82
ssS'call'
p83
S'(code="# -*- coding: utf-8 -*-\\n\\n#######################...tetime.datetime.now()), Field(\'note\', \'upload\'))\\n", environment={\'A\': <class \'gluon.html.A\'>, \'ANY_OF\': <class \'gluon.validators.ANY_OF\'>, \'Auth\': <class \'gluon.tools.Auth\'>, \'B\': <class \'gluon.html.B\'>, \'BEAUTIFY\': <class \'gluon.html.BEAUTIFY\'>, \'BODY\': <class \'gluon.html.BODY\'>, \'BR\': <class \'gluon.html.BR\'>, \'BUTTON\': <class \'gluon.html.BUTTON\'>, \'CAT\': <class \'gluon.html.CAT\'>, \'CENTER\': <class \'gluon.html.CENTER\'>, ...}, layer=\'/home/vamsee/web2py/applications/Tris/models/db.py\')'
p84
sS'func'
p85
S'restricted'
p86
sa(dp87
g62
S'/home/vamsee/web2py/applications/Tris/models/db.py'
p88
sg64
(dp89
S'db.define_table'
p90
S'<bound method DAL.define_table of <DAL uri="sqlite://storage.sqlite">>'
p91
sS'datetime.datetime.now'
p92
S'<built-in method now of type object>'
p93
sS'default'
p94
S'undefined'
p95
sS'db'
p96
S'<DAL uri="sqlite://storage.sqlite">'
p97
sS'auth'
p98
S'<gluon.tools.Auth object>'
p99
sS'datetime'
p100
S"<module 'datetime' from '/usr/lib/python2.7/lib-dynload/datetime.x86_64-linux-gnu.so'>"
p101
sS'Field'
p102
S"<class 'gluon.dal.Field'>"
p103
sS'auth.user'
p104
S'None'
p105
sS'datetime.datetime'
p106
S"<type 'datetime.datetime'>"
p107
sS'auth.user.email'
p108
g95
ssg70
I88
sg71
(dp109
I79
S'## More API examples for controllers:'
p110
sI80
S'##'
p111
sI81
S"## >>> db.mytable.insert(myfield='value')"
p112
sI82
S"## >>> rows=db(db.mytable.myfield=='value').select(db.mytable.ALL)"
p113
sI83
S'## >>> for row in rows: print row.id, row.myfield'
p114
sI84
S'#########################################################################'
p115
sI85
S''
sI86
S'## after defining tables, uncomment below to enable auditing'
p116
sI87
S'# auth.enable_record_versioning(db)'
p117
sI88
S"db.define_table('notes_upload',Field('email','string', default=auth.user.email), Field('added', 'datetime', default=datetime.datetime.now()), Field('note', 'upload'))"
p118
ssg83
S'()'
p119
sg85
S'<module>'
p120
sasS'pyver'
p121
S'Python 2.7.5+: /usr/bin/python (prefix: /usr)'
p122
sS'session'
p123
g57
(S's\x1a\x00\x00\x00<div><table></table></div>'
tRp124
sS'etype'
p125
S"<type 'exceptions.AttributeError'>"
p126
sS'date'
p127
S'Mon Apr  7 18:48:41 2014'
p128
sS'response'
p129
g57
(S's\x8e\x15\x00\x00<div><table><tr><td style="font-weight:bold;vertical-align:top;">body</td><td style="vertical-align:top;">:</td><td><div>&lt;cStringIO.StringO object at 0x7fc4f80c35e0&gt;</div></td></tr><tr><td style="font-weight:bold;vertical-align:top;">cookies</td><td style="vertical-align:top;">:</td><td><div><table><tr><td style="font-weight:bold;vertical-align:top;">session_id_tris</td><td style="vertical-align:top;">:</td><td><div>127.0.0.1-461c49b8-6eb0-4572-900a-4149615f2469<table><tr><td style="font-weight:bold;vertical-align:top;">comment</td><td style="vertical-align:top;">:</td><td><div></div></td></tr><tr><td style="font-weight:bold;vertical-align:top;">domain</td><td style="vertical-align:top;">:</td><td><div></div></td></tr><tr><td style="font-weight:bold;vertical-align:top;">expires</td><td style="vertical-align:top;">:</td><td><div></div></td></tr><tr><td style="font-weight:bold;vertical-align:top;">httponly</td><td style="vertical-align:top;">:</td><td><div></div></td></tr><tr><td style="font-weight:bold;vertical-align:top;">max-age</td><td style="vertical-align:top;">:</td><td><div></div></td></tr><tr><td style="font-weight:bold;vertical-align:top;">path</td><td style="vertical-align:top;">:</td><td><div>/</div></td></tr><tr><td style="font-weight:bold;vertical-align:top;">secure</td><td style="vertical-align:top;">:</td><td><div></div></td></tr><tr><td style="font-weight:bold;vertical-align:top;">version</td><td style="vertical-align:top;">:</td><td><div></div></td></tr></table></div></td></tr></table></div></td></tr><tr><td style="font-weight:bold;vertical-align:top;">delimiters</td><td style="vertical-align:top;">:</td><td><div><table><tr><td><div>{{</div></td></tr><tr><td><div>}}</div></td></tr></table></div></td></tr><tr><td style="font-weight:bold;vertical-align:top;">files</td><td style="vertical-align:top;">:</td><td><div><table></table></div></td></tr><tr><td style="font-weight:bold;vertical-align:top;">flash</td><td style="vertical-align:top;">:</td><td><div></div></td></tr><tr><td style="font-weight:bold;vertical-align:top;">generic_patterns</td><td style="vertical-align:top;">:</td><td><div><table><tr><td><div>*</div></td></tr></table></div></td></tr><tr><td style="font-weight:bold;vertical-align:top;">headers</td><td style="vertical-align:top;">:</td><td><div><table><tr><td style="font-weight:bold;vertical-align:top;">X-Powered-By</td><td style="vertical-align:top;">:</td><td><div>web2py</div></td></tr></table></div></td></tr><tr><td style="font-weight:bold;vertical-align:top;">menu</td><td style="vertical-align:top;">:</td><td><div><table></table></div></td></tr><tr><td style="font-weight:bold;vertical-align:top;">meta</td><td style="vertical-align:top;">:</td><td><div><table></table></div></td></tr><tr><td style="font-weight:bold;vertical-align:top;">models_to_run</td><td style="vertical-align:top;">:</td><td><div><table><tr><td><div>^\\w+\\.py$</div></td></tr><tr><td><div>^default/\\w+\\.py$</div></td></tr><tr><td><div>^default/index/\\w+\\.py$</div></td></tr></table></div></td></tr><tr><td style="font-weight:bold;vertical-align:top;">postprocessing</td><td style="vertical-align:top;">:</td><td><div><table></table></div></td></tr><tr><td style="font-weight:bold;vertical-align:top;">session_client</td><td style="vertical-align:top;">:</td><td><div>127.0.0.1</div></td></tr><tr><td style="font-weight:bold;vertical-align:top;">session_cookie_compression_level</td><td style="vertical-align:top;">:</td><td><div>None</div></td></tr><tr><td style="font-weight:bold;vertical-align:top;">session_cookie_expires</td><td style="vertical-align:top;">:</td><td><div>None</div></td></tr><tr><td style="font-weight:bold;vertical-align:top;">session_cookie_key</td><td style="vertical-align:top;">:</td><td><div>None</div></td></tr><tr><td style="font-weight:bold;vertical-align:top;">session_data_name</td><td style="vertical-align:top;">:</td><td><div>session_data_tris</div></td></tr><tr><td style="font-weight:bold;vertical-align:top;">session_file</td><td style="vertical-align:top;">:</td><td><div>None</div></td></tr><tr><td style="font-weight:bold;vertical-align:top;">session_filename</td><td style="vertical-align:top;">:</td><td><div>/home/vamsee/web2py/applications/Tris/sessions/127.0.0.1-461c49b8-6eb0-4572-900a-4149615f2469</div></td></tr><tr><td style="font-weight:bold;vertical-align:top;">session_hash</td><td style="vertical-align:top;">:</td><td><div>106f4c22ca06cc343e42b73a0d8492f6</div></td></tr><tr><td style="font-weight:bold;vertical-align:top;">session_id</td><td style="vertical-align:top;">:</td><td><div>127.0.0.1-461c49b8-6eb0-4572-900a-4149615f2469</div></td></tr><tr><td style="font-weight:bold;vertical-align:top;">session_id_name</td><td style="vertical-align:top;">:</td><td><div>session_id_tris</div></td></tr><tr><td style="font-weight:bold;vertical-align:top;">session_masterapp</td><td style="vertical-align:top;">:</td><td><div>Tris</div></td></tr><tr><td style="font-weight:bold;vertical-align:top;">session_new</td><td style="vertical-align:top;">:</td><td><div>True</div></td></tr><tr><td style="font-weight:bold;vertical-align:top;">session_storage_type</td><td style="vertical-align:top;">:</td><td><div>file</div></td></tr><tr><td style="font-weight:bold;vertical-align:top;">status</td><td style="vertical-align:top;">:</td><td><div>200</div></td></tr><tr><td style="font-weight:bold;vertical-align:top;">view</td><td style="vertical-align:top;">:</td><td><div>default/index.html</div></td></tr></table></div>'
tRp130
sS'locals'
p131
(dp132
S'Service'
p133
S"<class 'gluon.tools.Service'>"
p134
sS'OBJECT'
p135
S"<class 'gluon.html.OBJECT'>"
p136
sS'SQLDB'
p137
S"<class 'gluon.dal.DAL'>"
p138
sg123
S'<Storage {}>'
p139
sS'LINK'
p140
S"<class 'gluon.html.LINK'>"
p141
sS'BR'
p142
S"<class 'gluon.html.BR'>"
p143
sS'local_import'
p144
S'<function <lambda>>'
p145
sS'OPTGROUP'
p146
S"<class 'gluon.html.OPTGROUP'>"
p147
sS'LI'
p148
S"<class 'gluon.html.LI'>"
p149
sS'PRE'
p150
S"<class 'gluon.html.PRE'>"
p151
sS'IS_INT_IN_RANGE'
p152
S"<class 'gluon.validators.IS_INT_IN_RANGE'>"
p153
sS'IS_LOWER'
p154
S"<class 'gluon.validators.IS_LOWER'>"
p155
sS'IS_STRONG'
p156
S"<class 'gluon.validators.IS_STRONG'>"
p157
sS'cache'
p158
S'<gluon.cache.Cache object>'
p159
sS'IS_IN_DB'
p160
S"<class 'gluon.validators.IS_IN_DB'>"
p161
sS'TAG'
p162
S'<gluon.html.__TAG__ object>'
p163
sS'SQLField'
p164
S"<class 'gluon.dal.Field'>"
p165
sS'mail'
p166
S'<gluon.tools.Mail object>'
p167
sS'BODY'
p168
S"<class 'gluon.html.BODY'>"
p169
sS'IS_DATE_IN_RANGE'
p170
S"<class 'gluon.validators.IS_DATE_IN_RANGE'>"
p171
sS'TH'
p172
S"<class 'gluon.html.TH'>"
p173
sS'URL'
p174
S'<function URL>'
p175
sS'__file__'
p176
S"'/home/vamsee/web2py/applications/Tris/models/db.py'"
p177
sS'db'
p178
S'<DAL uri="sqlite://storage.sqlite">'
p179
sS'auth'
p180
S'<gluon.tools.Auth object>'
p181
sS'P'
S"<class 'gluon.html.P'>"
p182
sS'TFOOT'
p183
S"<class 'gluon.html.TFOOT'>"
p184
sS'XHTML'
p185
S"<class 'gluon.html.XHTML'>"
p186
sS'datetime'
p187
S"<module 'datetime' from '/usr/lib/python2.7/lib-dynload/datetime.x86_64-linux-gnu.so'>"
p188
sS'ON'
p189
S'True'
p190
sS'OL'
p191
S"<class 'gluon.html.OL'>"
p192
sS'TEXTAREA'
p193
S"<class 'gluon.html.TEXTAREA'>"
p194
sS'MENU'
p195
S"<class 'gluon.html.MENU'>"
p196
sS'LOAD'
p197
S'<function LOAD>'
p198
sS'CODE'
p199
S"<class 'gluon.html.CODE'>"
p200
sS'HTTP'
p201
S"<class 'gluon.http.HTTP'>"
p202
sS'HR'
p203
S"<class 'gluon.html.HR'>"
p204
sS'IS_DATETIME'
p205
S"<class 'gluon.validators.IS_DATETIME'>"
p206
sS'HEAD'
p207
S"<class 'gluon.html.HEAD'>"
p208
sS'LABEL'
p209
S"<class 'gluon.html.LABEL'>"
p210
sS'CLEANUP'
p211
S"<class 'gluon.validators.CLEANUP'>"
p212
sS'plugins'
p213
S'<gluon.tools.PluginManager object>'
p214
sS'SELECT'
p215
S"<class 'gluon.html.SELECT'>"
p216
sS'use_janrain'
p217
S'<function use_janrain>'
p218
sS'CENTER'
p219
S"<class 'gluon.html.CENTER'>"
p220
sS'prettydate'
p221
S'<function prettydate>'
p222
sS'Crud'
p223
S"<class 'gluon.tools.Crud'>"
p224
sS'Auth'
p225
S"<class 'gluon.tools.Auth'>"
p226
sS'__builtins__'
p227
S"{'ArithmeticError': <type 'exceptions.ArithmeticError'>, 'AssertionError': <type 'exceptions.AssertionError'>, 'AttributeError': <type 'exceptions.AttributeError'>, 'BaseException': <type 'exceptions.BaseException'>, 'BufferError': <type 'exceptions.BufferError'>, 'BytesWarning': <type 'exceptions.BytesWarning'>, 'DeprecationWarning': <type 'exceptions.DeprecationWarning'>, 'EOFError': <type 'exceptions.EOFError'>, 'Ellipsis': Ellipsis, 'EnvironmentError': <type 'exceptions.EnvironmentError'>, ...}"
p228
sS'HTML'
p229
S"<class 'gluon.html.HTML'>"
p230
sS'SQLFORM'
p231
S"<class 'gluon.sqlhtml.SQLFORM'>"
p232
sS'EM'
p233
S"<class 'gluon.html.EM'>"
p234
sS'redirect'
p235
S'<function redirect>'
p236
sS'FIELDSET'
p237
S"<class 'gluon.html.FIELDSET'>"
p238
sS'IS_EQUAL_TO'
p239
S"<class 'gluon.validators.IS_EQUAL_TO'>"
p240
sS'embed64'
p241
S'<function embed64>'
p242
sS'IS_LIST_OF'
p243
S"<class 'gluon.validators.IS_LIST_OF'>"
p244
sS'__name__'
p245
S"'__restricted__'"
p246
sS'EMBED'
p247
S"<class 'gluon.html.EMBED'>"
p248
sS'FORM'
p249
S"<class 'gluon.html.FORM'>"
p250
sS'H2'
p251
S"<class 'gluon.html.H2'>"
p252
sS'H3'
p253
S"<class 'gluon.html.H3'>"
p254
sS'BUTTON'
p255
S"<class 'gluon.html.BUTTON'>"
p256
sS'H1'
p257
S"<class 'gluon.html.H1'>"
p258
sS'H6'
p259
S"<class 'gluon.html.H6'>"
p260
sS'H4'
p261
S"<class 'gluon.html.H4'>"
p262
sS'H5'
p263
S"<class 'gluon.html.H5'>"
p264
sS'UL'
p265
S"<class 'gluon.html.UL'>"
p266
sS'IS_UPPER'
p267
S"<class 'gluon.validators.IS_UPPER'>"
p268
sS'xmlescape'
p269
S'<function xmlescape>'
p270
sS'IS_TIME'
p271
S"<class 'gluon.validators.IS_TIME'>"
p272
sS'OPTION'
p273
S"<class 'gluon.html.OPTION'>"
p274
sS'TITLE'
p275
S"<class 'gluon.html.TITLE'>"
p276
sS'CRYPT'
p277
S"<class 'gluon.validators.CRYPT'>"
p278
sS'IS_EMPTY_OR'
p279
S"<class 'gluon.validators.IS_EMPTY_OR'>"
p280
sS'MARKMIN'
p281
S"<class 'gluon.html.MARKMIN'>"
p282
sS'INPUT'
p283
S"<class 'gluon.html.INPUT'>"
p284
sS'STRONG'
p285
S"<class 'gluon.html.STRONG'>"
p286
sS'COL'
p287
S"<class 'gluon.html.COL'>"
p288
sS'service'
p289
S'<gluon.tools.Service object>'
p290
sS'SCRIPT'
p291
S"<class 'gluon.html.SCRIPT'>"
p292
sS'TABLE'
p293
S"<class 'gluon.html.TABLE'>"
p294
sS'IS_IPV4'
p295
S"<class 'gluon.validators.IS_IPV4'>"
p296
sS'IS_LENGTH'
p297
S"<class 'gluon.validators.IS_LENGTH'>"
p298
sS'IS_IPV6'
p299
S"<class 'gluon.validators.IS_IPV6'>"
p300
sS'XML'
p301
S"<class 'gluon.html.XML'>"
p302
sS'B'
S"<class 'gluon.html.B'>"
p303
sS'IMG'
p304
S"<class 'gluon.html.IMG'>"
p305
sS'SQLTABLE'
p306
S"<class 'gluon.sqlhtml.SQLTABLE'>"
p307
sS'IS_MATCH'
p308
S"<class 'gluon.validators.IS_MATCH'>"
p309
sS'IS_ALPHANUMERIC'
p310
S"<class 'gluon.validators.IS_ALPHANUMERIC'>"
p311
sS'SPAN'
p312
S"<class 'gluon.html.SPAN'>"
p313
sS'IS_JSON'
p314
S"<class 'gluon.validators.IS_JSON'>"
p315
sS'IS_IPADDRESS'
p316
S"<class 'gluon.validators.IS_IPADDRESS'>"
p317
sS'IS_SLUG'
p318
S"<class 'gluon.validators.IS_SLUG'>"
p319
sS'BEAUTIFY'
p320
S"<class 'gluon.html.BEAUTIFY'>"
p321
sS'META'
p322
S"<class 'gluon.html.META'>"
p323
sS'IS_DATE'
p324
S"<class 'gluon.validators.IS_DATE'>"
p325
sS'IS_EMAIL'
p326
S"<class 'gluon.validators.IS_EMAIL'>"
p327
sS'IS_NOT_EMPTY'
p328
S"<class 'gluon.validators.IS_NOT_EMPTY'>"
p329
sS'IS_FLOAT_IN_RANGE'
p330
S"<class 'gluon.validators.IS_FLOAT_IN_RANGE'>"
p331
sS'TBODY'
p332
S"<class 'gluon.html.TBODY'>"
p333
sS'CAT'
p334
S"<class 'gluon.html.CAT'>"
p335
sS'Field'
p336
S"<class 'gluon.dal.Field'>"
p337
sS'IS_LIST_OF_EMAILS'
p338
S"<class 'gluon.validators.IS_LIST_OF_EMAILS'>"
p339
sS'DIV'
p340
S"<class 'gluon.html.DIV'>"
p341
sS'LEGEND'
p342
S"<class 'gluon.html.LEGEND'>"
p343
sS'COLGROUP'
p344
S"<class 'gluon.html.COLGROUP'>"
p345
sS'DAL'
p346
S"<class 'gluon.dal.DAL'>"
p347
sS'TT'
p348
S"<class 'gluon.html.TT'>"
p349
sS'TR'
p350
S"<class 'gluon.html.TR'>"
p351
sS'__package__'
p352
S'None'
p353
sS'IFRAME'
p354
S"<class 'gluon.html.IFRAME'>"
p355
sS'TD'
p356
S"<class 'gluon.html.TD'>"
p357
sS'PluginManager'
p358
S"<class 'gluon.tools.PluginManager'>"
p359
sS'IS_URL'
p360
S"<class 'gluon.validators.IS_URL'>"
p361
sS'A'
S"<class 'gluon.html.A'>"
p362
sS'STYLE'
p363
S"<class 'gluon.html.STYLE'>"
p364
sS'IS_DATETIME_IN_RANGE'
p365
S"<class 'gluon.validators.IS_DATETIME_IN_RANGE'>"
p366
sS'IS_IMAGE'
p367
S"<class 'gluon.validators.IS_IMAGE'>"
p368
sS'I'
S"<class 'gluon.html.I'>"
p369
sS'crud'
p370
S'<gluon.tools.Crud object>'
p371
sS'IS_NOT_IN_DB'
p372
S"<class 'gluon.validators.IS_NOT_IN_DB'>"
p373
sg129
S"<Storage {'body': <cStringIO.StringO object at 0...t 0x7fc4e80e8aa0>, 'view': 'default/index.html'}>"
p374
sS'THEAD'
p375
S"<class 'gluon.html.THEAD'>"
p376
sS'ANY_OF'
p377
S"<class 'gluon.validators.ANY_OF'>"
p378
sS'IS_NULL_OR'
p379
S"<class 'gluon.validators.IS_EMPTY_OR'>"
p380
sg56
S"<Storage {'_vars': None, 'function': 'index', 'c...lder': '/home/vamsee/web2py/applications/Tris/'}>"
p381
sS'IS_EXPR'
p382
S"<class 'gluon.validators.IS_EXPR'>"
p383
sS'IS_IN_SET'
p384
S"<class 'gluon.validators.IS_IN_SET'>"
p385
sS'IS_UPLOAD_FILENAME'
p386
S"<class 'gluon.validators.IS_UPLOAD_FILENAME'>"
p387
sS'IS_DECIMAL_IN_RANGE'
p388
S"<class 'gluon.validators.IS_DECIMAL_IN_RANGE'>"
p389
sS'T'
S'<gluon.languages.translator object>'
p390
sssS'traceback'
p391
S'Traceback (most recent call last):\n  File "/home/vamsee/web2py/gluon/restricted.py", line 217, in restricted\n    exec ccode in environment\n  File "/home/vamsee/web2py/applications/Tris/models/db.py", line 88, in <module>\n    db.define_table(\'notes_upload\',Field(\'email\',\'string\', default=auth.user.email), Field(\'added\', \'datetime\', default=datetime.datetime.now()), Field(\'note\', \'upload\'))\nAttributeError: \'NoneType\' object has no attribute \'email\'\n'
p392
s.